; Function Attrs: nounwind uwtable
define noundef nonnull ptr @l_List_elem___at_Lake_recFetchWithIndex___spec__1___boxed(ptr noundef %0, ptr noundef %1) local_unnamed_addr #1 {
  br label %3

3:                                                ; preds = %13, %2
  %.011.i = phi ptr [ %1, %2 ], [ %17, %13 ]
  %4 = ptrtoint ptr %.011.i to i64
  %5 = and i64 %4, 1
  %.not.i.i = icmp eq i64 %5, 0
  br i1 %.not.i.i, label %9, label %6

6:                                                ; preds = %3
  %7 = lshr i64 %4, 1
  %8 = trunc i64 %7 to i32
  br label %lean_obj_tag.exit.i

9:                                                ; preds = %3
  %10 = getelementptr i8, ptr %.011.i, i64 4
  %.val.i.i = load i32, ptr %10, align 4
  %11 = lshr i32 %.val.i.i, 24
  br label %lean_obj_tag.exit.i

lean_obj_tag.exit.i:                              ; preds = %9, %6
  %.0.i.i = phi i32 [ %8, %6 ], [ %11, %9 ]
  %12 = icmp eq i32 %.0.i.i, 0
  br i1 %12, label %l_List_elem___at_Lake_recFetchWithIndex___spec__1.exit, label %13

13:                                               ; preds = %lean_obj_tag.exit.i
  %14 = getelementptr inbounds nuw i8, ptr %.011.i, i64 8
  %15 = load ptr, ptr %14, align 8, !tbaa !4
  %16 = getelementptr inbounds nuw i8, ptr %.011.i, i64 16
  %17 = load ptr, ptr %16, align 8, !tbaa !4
  %18 = tail call zeroext i8 @l___private_Lake_Build_Key_0__Lake_decEqBuildKey____x40_Lake_Build_Key___hyg_280_(ptr noundef %0, ptr noundef %15) #5
  %19 = icmp eq i8 %18, 0
  br i1 %19, label %3, label %l_List_elem___at_Lake_recFetchWithIndex___spec__1.exit

l_List_elem___at_Lake_recFetchWithIndex___spec__1.exit: ; preds = %lean_obj_tag.exit.i, %13
  %.1.i = phi i64 [ 3, %13 ], [ 1, %lean_obj_tag.exit.i ]
  %20 = ptrtoint ptr %1 to i64
  %21 = and i64 %20, 1
  %.not = icmp eq i64 %21, 0
  br i1 %.not, label %22, label %lean_dec.exit5

22:                                               ; preds = %l_List_elem___at_Lake_recFetchWithIndex___spec__1.exit
  %23 = load i32, ptr %1, align 4, !tbaa !8
  %24 = icmp sgt i32 %23, 1
  br i1 %24, label %25, label %27, !prof !11

25:                                               ; preds = %22
  %26 = add nsw i32 %23, -1
  store i32 %26, ptr %1, align 4, !tbaa !8
  br label %lean_dec.exit5

27:                                               ; preds = %22
  %.not.i = icmp eq i32 %23, 0
  br i1 %.not.i, label %lean_dec.exit5, label %28

28:                                               ; preds = %27
  tail call void @lean_dec_ref_cold(ptr noundef nonnull %1) #5
  br label %lean_dec.exit5

lean_dec.exit5:                                   ; preds = %28, %27, %25, %l_List_elem___at_Lake_recFetchWithIndex___spec__1.exit
  %29 = ptrtoint ptr %0 to i64
  %30 = and i64 %29, 1
  %.not8 = icmp eq i64 %30, 0
  br i1 %.not8, label %31, label %lean_dec.exit

31:                                               ; preds = %lean_dec.exit5
  %32 = load i32, ptr %0, align 4, !tbaa !8
  %33 = icmp sgt i32 %32, 1
  br i1 %33, label %34, label %36, !prof !11

34:                                               ; preds = %31
  %35 = add nsw i32 %32, -1
  store i32 %35, ptr %0, align 4, !tbaa !8
  br label %lean_dec.exit

36:                                               ; preds = %31
  %.not.i6 = icmp eq i32 %32, 0
  br i1 %.not.i6, label %lean_dec.exit, label %37

37:                                               ; preds = %36
  tail call void @lean_dec_ref_cold(ptr noundef nonnull %0) #5
  br label %lean_dec.exit

lean_dec.exit:                                    ; preds = %37, %36, %34, %lean_dec.exit5
  %38 = inttoptr i64 %.1.i to ptr
  ret ptr %38
}